; Function Attrs: nounwind uwtable
define i64 @Java_sun_security_smartcardio_PCSC_SCardConnect(ptr noundef %0, ptr nocapture noundef readnone %1, i64 noundef %2, ptr noundef %3, i32 noundef %4, i32 noundef %5) local_unnamed_addr #0 {
  %7 = alloca i64, align 8
  %8 = alloca i64, align 8
  store i64 0, ptr %7, align 8
  store i64 0, ptr %8, align 8
  %9 = load ptr, ptr %0, align 8
  %10 = getelementptr inbounds i8, ptr %9, i64 1352
  %11 = load ptr, ptr %10, align 8
  %12 = tail call ptr %11(ptr noundef nonnull %0, ptr noundef %3, ptr noundef null) #7
  %13 = icmp eq ptr %12, null
  br i1 %13, label %handleRV.exit.thread, label %14

14:                                               ; preds = %6
  %15 = load ptr, ptr @scardConnect, align 8
  %16 = sext i32 %4 to i64
  %17 = sext i32 %5 to i64
  %18 = call i64 %15(i64 noundef %2, ptr noundef nonnull %12, i64 noundef %16, i64 noundef %17, ptr noundef nonnull %7, ptr noundef nonnull %8) #7
  %19 = load ptr, ptr %0, align 8
  %20 = getelementptr inbounds i8, ptr %19, i64 1360
  %21 = load ptr, ptr %20, align 8
  call void %21(ptr noundef nonnull %0, ptr noundef %3, ptr noundef nonnull %12) #7
  %22 = icmp eq i64 %18, 0
  br i1 %22, label %46, label %23

23:                                               ; preds = %14
  %24 = load ptr, ptr %0, align 8
  %25 = getelementptr inbounds i8, ptr %24, i64 48
  %26 = load ptr, ptr %25, align 8
  %27 = call ptr %26(ptr noundef nonnull %0, ptr noundef nonnull @.str) #7
  %28 = icmp eq ptr %27, null
  br i1 %28, label %handleRV.exit.thread, label %29

29:                                               ; preds = %23
  %30 = load ptr, ptr %0, align 8
  %31 = getelementptr inbounds i8, ptr %30, i64 264
  %32 = load ptr, ptr %31, align 8
  %33 = call ptr %32(ptr noundef nonnull %0, ptr noundef nonnull %27, ptr noundef nonnull @.str.1, ptr noundef nonnull @.str.2) #7
  %34 = icmp eq ptr %33, null
  br i1 %34, label %handleRV.exit.thread, label %35

35:                                               ; preds = %29
  %36 = load ptr, ptr %0, align 8
  %37 = getelementptr inbounds i8, ptr %36, i64 224
  %38 = load ptr, ptr %37, align 8
  %39 = trunc i64 %18 to i32
  %40 = call ptr (ptr, ptr, ptr, ...) %38(ptr noundef nonnull %0, ptr noundef nonnull %27, ptr noundef nonnull %33, i32 noundef %39) #7
  %.not.i.i = icmp eq ptr %40, null
  br i1 %.not.i.i, label %handleRV.exit.thread, label %41

41:                                               ; preds = %35
  %42 = load ptr, ptr %0, align 8
  %43 = getelementptr inbounds i8, ptr %42, i64 104
  %44 = load ptr, ptr %43, align 8
  %45 = call i32 %44(ptr noundef nonnull %0, ptr noundef nonnull %40) #7
  br label %handleRV.exit.thread

46:                                               ; preds = %14
  %47 = load i64, ptr %7, align 8
  br label %handleRV.exit.thread

handleRV.exit.thread:                             ; preds = %41, %35, %29, %23, %46, %6
  %.0 = phi i64 [ 0, %6 ], [ %47, %46 ], [ 0, %23 ], [ 0, %29 ], [ 0, %35 ], [ 0, %41 ]
  ret i64 %.0
}